; Function Attrs: mustprogress uwtable
define dso_local void @_ZN5ImGui14EndMainMenuBarEv() local_unnamed_addr #5 {
  tail call void @_ZN5ImGui10EndMenuBarEv()
  %1 = load ptr, ptr @GImGui, align 8, !tbaa !4
  %2 = getelementptr inbounds nuw i8, ptr %1, i64 4928
  %3 = load ptr, ptr %2, align 8, !tbaa !9
  %4 = getelementptr inbounds nuw i8, ptr %1, i64 7792
  %5 = load ptr, ptr %4, align 8, !tbaa !335
  %6 = icmp eq ptr %3, %5
  br i1 %6, label %7, label %16

7:                                                ; preds = %0
  %8 = getelementptr inbounds nuw i8, ptr %1, i64 7808
  %9 = load i32, ptr %8, align 8, !tbaa !336
  %10 = icmp eq i32 %9, 0
  br i1 %10, label %11, label %16

11:                                               ; preds = %7
  %12 = getelementptr inbounds nuw i8, ptr %1, i64 7884
  %13 = load i8, ptr %12, align 4, !tbaa !565, !range !152, !noundef !153
  %14 = trunc nuw i8 %13 to i1
  br i1 %14, label %16, label %15

15:                                               ; preds = %11
  tail call void @_ZN5ImGui26FocusTopMostWindowUnderOneEP11ImGuiWindowS1_P13ImGuiViewporti(ptr noundef %5, ptr noundef null, ptr noundef null, i32 noundef 3)
  br label %16

16:                                               ; preds = %15, %11, %7, %0
  tail call void @_ZN5ImGui3EndEv()
  ret void
}